; Function Attrs: nounwind uwtable
define i32 @Pa_StopStream(ptr noundef %0) local_unnamed_addr #3 {
  %2 = load i32, ptr @initializationCount_, align 4
  %.not.i = icmp eq i32 %2, 0
  br i1 %.not.i, label %PaUtil_ValidateStreamPointer.exit.thread, label %3

3:                                                ; preds = %1
  %4 = icmp eq ptr %0, null
  br i1 %4, label %PaUtil_ValidateStreamPointer.exit.thread, label %5

5:                                                ; preds = %3
  %6 = load i64, ptr %0, align 8
  %.not3.i = icmp eq i64 %6, 405222981
  br i1 %.not3.i, label %PaUtil_ValidateStreamPointer.exit, label %PaUtil_ValidateStreamPointer.exit.thread

PaUtil_ValidateStreamPointer.exit:                ; preds = %5
  %7 = getelementptr inbounds nuw i8, ptr %0, i64 16
  %8 = load ptr, ptr %7, align 8
  %9 = getelementptr inbounds nuw i8, ptr %8, i64 32
  %10 = load ptr, ptr %9, align 8
  %11 = tail call i32 %10(ptr noundef nonnull %0) #12
  %12 = icmp eq i32 %11, 0
  br i1 %12, label %13, label %18

13:                                               ; preds = %PaUtil_ValidateStreamPointer.exit
  %14 = load ptr, ptr %7, align 8
  %15 = getelementptr inbounds nuw i8, ptr %14, i64 16
  %16 = load ptr, ptr %15, align 8
  %17 = tail call i32 %16(ptr noundef nonnull %0) #12
  br label %PaUtil_ValidateStreamPointer.exit.thread

18:                                               ; preds = %PaUtil_ValidateStreamPointer.exit
  %19 = icmp eq i32 %11, 1
  %spec.store.select = select i1 %19, i32 -9983, i32 %11
  br label %PaUtil_ValidateStreamPointer.exit.thread

PaUtil_ValidateStreamPointer.exit.thread:         ; preds = %5, %3, %1, %13, %18
  %.0 = phi i32 [ %17, %13 ], [ %spec.store.select, %18 ], [ -9988, %5 ], [ -9988, %3 ], [ -10000, %1 ]
  ret i32 %.0
}